; Function Attrs: nounwind uwtable
define internal i32 @alp_seek(ptr noundef readonly captures(none) %0, i32 %1, i64 noundef %2, i32 %3) #1 {
  %.not = icmp eq i64 %2, 0
  br i1 %.not, label %5, label %16

5:                                                ; preds = %4
  %6 = getelementptr inbounds nuw i8, ptr %0, i64 24
  %7 = load ptr, ptr %6, align 8, !tbaa !12
  %8 = getelementptr inbounds nuw i8, ptr %0, i64 32
  %9 = load ptr, ptr %8, align 8, !tbaa !27
  %10 = getelementptr inbounds nuw i8, ptr %7, i64 4
  %11 = load i32, ptr %10, align 4, !tbaa !30
  %12 = add i32 %11, 8
  %13 = zext i32 %12 to i64
  %14 = tail call i64 @avio_seek(ptr noundef %9, i64 noundef %13, i32 noundef 0) #5
  %15 = trunc i64 %14 to i32
  br label %16

16:                                               ; preds = %4, %5
  %.0 = phi i32 [ %15, %5 ], [ -22, %4 ]
  ret i32 %.0
}